ARM GAS  C:\Users\MYKHAI~1.SEN\AppData\Local\Temp\cck3W87h.s 			page 1


   1              		.cpu cortex-m3
   2              		.arch armv7-m
   3              		.fpu softvfp
   4              		.eabi_attribute 20, 1
   5              		.eabi_attribute 21, 1
   6              		.eabi_attribute 23, 3
   7              		.eabi_attribute 24, 1
   8              		.eabi_attribute 25, 1
   9              		.eabi_attribute 26, 1
  10              		.eabi_attribute 30, 6
  11              		.eabi_attribute 34, 1
  12              		.eabi_attribute 18, 4
  13              		.file	"main.c"
  14              		.text
  15              	.Ltext0:
  16              		.cfi_sections	.debug_frame
  17              		.file 1 "Core/Src/main.c"
  18              		.global	hspi2
  19              		.section	.bss.hspi2,"aw",%nobits
  20              		.align	2
  23              	hspi2:
  24 0000 00000000 		.space	88
  24      00000000 
  24      00000000 
  24      00000000 
  24      00000000 
  25              		.section	.text.main,"ax",%progbits
  26              		.align	1
  27              		.global	main
  28              		.syntax unified
  29              		.thumb
  30              		.thumb_func
  32              	main:
  33              	.LFB65:
   1:Core/Src/main.c **** /* USER CODE BEGIN Header */
   2:Core/Src/main.c **** /**
   3:Core/Src/main.c ****  ******************************************************************************
   4:Core/Src/main.c ****  * @file           : main.c
   5:Core/Src/main.c ****  * @brief          : Main program body
   6:Core/Src/main.c ****  ******************************************************************************
   7:Core/Src/main.c ****  * @attention
   8:Core/Src/main.c ****  *
   9:Core/Src/main.c ****  * Copyright (c) 2023 STMicroelectronics.
  10:Core/Src/main.c ****  * All rights reserved.
  11:Core/Src/main.c ****  *
  12:Core/Src/main.c ****  * This software is licensed under terms that can be found in the LICENSE file
  13:Core/Src/main.c ****  * in the root directory of this software component.
  14:Core/Src/main.c ****  * If no LICENSE file comes with this software, it is provided AS-IS.
  15:Core/Src/main.c ****  *
  16:Core/Src/main.c ****  ******************************************************************************
  17:Core/Src/main.c ****  */
  18:Core/Src/main.c **** /* USER CODE END Header */
  19:Core/Src/main.c **** /* Includes ------------------------------------------------------------------*/
  20:Core/Src/main.c **** #include "main.h"
  21:Core/Src/main.c **** #include "app-main.h"
  22:Core/Src/main.c **** 
  23:Core/Src/main.c **** /* Private includes ----------------------------------------------------------*/
ARM GAS  C:\Users\MYKHAI~1.SEN\AppData\Local\Temp\cck3W87h.s 			page 2


  24:Core/Src/main.c **** /* USER CODE BEGIN Includes */
  25:Core/Src/main.c **** 
  26:Core/Src/main.c **** /* USER CODE END Includes */
  27:Core/Src/main.c **** 
  28:Core/Src/main.c **** /* Private typedef -----------------------------------------------------------*/
  29:Core/Src/main.c **** /* USER CODE BEGIN PTD */
  30:Core/Src/main.c **** 
  31:Core/Src/main.c **** /* USER CODE END PTD */
  32:Core/Src/main.c **** 
  33:Core/Src/main.c **** /* Private define ------------------------------------------------------------*/
  34:Core/Src/main.c **** /* USER CODE BEGIN PD */
  35:Core/Src/main.c **** /* USER CODE END PD */
  36:Core/Src/main.c **** 
  37:Core/Src/main.c **** /* Private macro -------------------------------------------------------------*/
  38:Core/Src/main.c **** /* USER CODE BEGIN PM */
  39:Core/Src/main.c **** 
  40:Core/Src/main.c **** /* USER CODE END PM */
  41:Core/Src/main.c **** 
  42:Core/Src/main.c **** /* Private variables ---------------------------------------------------------*/
  43:Core/Src/main.c **** SPI_HandleTypeDef hspi2;
  44:Core/Src/main.c **** 
  45:Core/Src/main.c **** /* USER CODE BEGIN PV */
  46:Core/Src/main.c **** 
  47:Core/Src/main.c **** /* USER CODE END PV */
  48:Core/Src/main.c **** 
  49:Core/Src/main.c **** /* Private function prototypes -----------------------------------------------*/
  50:Core/Src/main.c **** void SystemClock_Config(void);
  51:Core/Src/main.c **** static void MX_GPIO_Init(void);
  52:Core/Src/main.c **** static void MX_SPI2_Init(void);
  53:Core/Src/main.c **** /* USER CODE BEGIN PFP */
  54:Core/Src/main.c **** 
  55:Core/Src/main.c **** /* USER CODE END PFP */
  56:Core/Src/main.c **** 
  57:Core/Src/main.c **** /* Private user code ---------------------------------------------------------*/
  58:Core/Src/main.c **** /* USER CODE BEGIN 0 */
  59:Core/Src/main.c **** 
  60:Core/Src/main.c **** /* USER CODE END 0 */
  61:Core/Src/main.c **** 
  62:Core/Src/main.c **** /**
  63:Core/Src/main.c ****  * @brief  The application entry point.
  64:Core/Src/main.c ****  * @retval int
  65:Core/Src/main.c ****  */
  66:Core/Src/main.c **** int main(void) {
  34              		.loc 1 66 16
  35              		.cfi_startproc
  36              		@ args = 0, pretend = 0, frame = 0
  37              		@ frame_needed = 1, uses_anonymous_args = 0
  38 0000 80B5     		push	{r7, lr}
  39              	.LCFI0:
  40              		.cfi_def_cfa_offset 8
  41              		.cfi_offset 7, -8
  42              		.cfi_offset 14, -4
  43 0002 00AF     		add	r7, sp, #0
  44              	.LCFI1:
  45              		.cfi_def_cfa_register 7
  67:Core/Src/main.c ****     /* USER CODE BEGIN 1 */
  68:Core/Src/main.c **** 
ARM GAS  C:\Users\MYKHAI~1.SEN\AppData\Local\Temp\cck3W87h.s 			page 3


  69:Core/Src/main.c ****     /* USER CODE END 1 */
  70:Core/Src/main.c **** 
  71:Core/Src/main.c ****     /* MCU Configuration--------------------------------------------------------*/
  72:Core/Src/main.c **** 
  73:Core/Src/main.c ****     /* Reset of all peripherals, Initializes the Flash interface and the Systick. */
  74:Core/Src/main.c ****     HAL_Init();
  46              		.loc 1 74 5
  47 0004 FFF7FEFF 		bl	HAL_Init
  75:Core/Src/main.c **** 
  76:Core/Src/main.c ****     /* USER CODE BEGIN Init */
  77:Core/Src/main.c **** 
  78:Core/Src/main.c ****     /* USER CODE END Init */
  79:Core/Src/main.c **** 
  80:Core/Src/main.c ****     /* Configure the system clock */
  81:Core/Src/main.c ****     SystemClock_Config();
  48              		.loc 1 81 5
  49 0008 FFF7FEFF 		bl	SystemClock_Config
  82:Core/Src/main.c **** 
  83:Core/Src/main.c ****     /* USER CODE BEGIN SysInit */
  84:Core/Src/main.c **** 
  85:Core/Src/main.c ****     /* USER CODE END SysInit */
  86:Core/Src/main.c **** 
  87:Core/Src/main.c ****     /* Initialize all configured peripherals */
  88:Core/Src/main.c ****     MX_GPIO_Init();
  50              		.loc 1 88 5
  51 000c FFF7FEFF 		bl	MX_GPIO_Init
  89:Core/Src/main.c ****     MX_SPI2_Init();
  52              		.loc 1 89 5
  53 0010 FFF7FEFF 		bl	MX_SPI2_Init
  90:Core/Src/main.c ****     /* USER CODE BEGIN 2 */
  91:Core/Src/main.c ****     appMain();
  54              		.loc 1 91 5
  55 0014 FFF7FEFF 		bl	appMain
  56              	.L2:
  92:Core/Src/main.c ****     /* USER CODE END 2 */
  93:Core/Src/main.c **** 
  94:Core/Src/main.c ****     /* Infinite loop */
  95:Core/Src/main.c ****     /* USER CODE BEGIN WHILE */
  96:Core/Src/main.c ****     while (1) {
  57              		.loc 1 96 11 discriminator 1
  58 0018 00BF     		nop
  59 001a FDE7     		b	.L2
  60              		.cfi_endproc
  61              	.LFE65:
  63              		.section	.text.SystemClock_Config,"ax",%progbits
  64              		.align	1
  65              		.global	SystemClock_Config
  66              		.syntax unified
  67              		.thumb
  68              		.thumb_func
  70              	SystemClock_Config:
  71              	.LFB66:
  97:Core/Src/main.c ****         /* USER CODE END WHILE */
  98:Core/Src/main.c **** 
  99:Core/Src/main.c ****         /* USER CODE BEGIN 3 */
 100:Core/Src/main.c ****     }
 101:Core/Src/main.c ****     /* USER CODE END 3 */
ARM GAS  C:\Users\MYKHAI~1.SEN\AppData\Local\Temp\cck3W87h.s 			page 4


 102:Core/Src/main.c **** }
 103:Core/Src/main.c **** 
 104:Core/Src/main.c **** /**
 105:Core/Src/main.c ****  * @brief System Clock Configuration
 106:Core/Src/main.c ****  * @retval None
 107:Core/Src/main.c ****  */
 108:Core/Src/main.c **** void SystemClock_Config(void) {
  72              		.loc 1 108 31
  73              		.cfi_startproc
  74              		@ args = 0, pretend = 0, frame = 64
  75              		@ frame_needed = 1, uses_anonymous_args = 0
  76 0000 80B5     		push	{r7, lr}
  77              	.LCFI2:
  78              		.cfi_def_cfa_offset 8
  79              		.cfi_offset 7, -8
  80              		.cfi_offset 14, -4
  81 0002 90B0     		sub	sp, sp, #64
  82              	.LCFI3:
  83              		.cfi_def_cfa_offset 72
  84 0004 00AF     		add	r7, sp, #0
  85              	.LCFI4:
  86              		.cfi_def_cfa_register 7
 109:Core/Src/main.c ****     RCC_OscInitTypeDef RCC_OscInitStruct = {0};
  87              		.loc 1 109 24
  88 0006 07F11803 		add	r3, r7, #24
  89 000a 2822     		movs	r2, #40
  90 000c 0021     		movs	r1, #0
  91 000e 1846     		mov	r0, r3
  92 0010 FFF7FEFF 		bl	memset
 110:Core/Src/main.c ****     RCC_ClkInitTypeDef RCC_ClkInitStruct = {0};
  93              		.loc 1 110 24
  94 0014 3B1D     		adds	r3, r7, #4
  95 0016 0022     		movs	r2, #0
  96 0018 1A60     		str	r2, [r3]
  97 001a 5A60     		str	r2, [r3, #4]
  98 001c 9A60     		str	r2, [r3, #8]
  99 001e DA60     		str	r2, [r3, #12]
 100 0020 1A61     		str	r2, [r3, #16]
 111:Core/Src/main.c **** 
 112:Core/Src/main.c ****     /** Initializes the RCC Oscillators according to the specified parameters
 113:Core/Src/main.c ****      * in the RCC_OscInitTypeDef structure.
 114:Core/Src/main.c ****      */
 115:Core/Src/main.c ****     RCC_OscInitStruct.OscillatorType = RCC_OSCILLATORTYPE_HSI;
 101              		.loc 1 115 38
 102 0022 0223     		movs	r3, #2
 103 0024 BB61     		str	r3, [r7, #24]
 116:Core/Src/main.c ****     RCC_OscInitStruct.HSIState = RCC_HSI_ON;
 104              		.loc 1 116 32
 105 0026 0123     		movs	r3, #1
 106 0028 BB62     		str	r3, [r7, #40]
 117:Core/Src/main.c ****     RCC_OscInitStruct.HSICalibrationValue = RCC_HSICALIBRATION_DEFAULT;
 107              		.loc 1 117 43
 108 002a 1023     		movs	r3, #16
 109 002c FB62     		str	r3, [r7, #44]
 118:Core/Src/main.c ****     RCC_OscInitStruct.PLL.PLLState = RCC_PLL_NONE;
 110              		.loc 1 118 36
 111 002e 0023     		movs	r3, #0
ARM GAS  C:\Users\MYKHAI~1.SEN\AppData\Local\Temp\cck3W87h.s 			page 5


 112 0030 7B63     		str	r3, [r7, #52]
 119:Core/Src/main.c ****     if (HAL_RCC_OscConfig(&RCC_OscInitStruct) != HAL_OK) {
 113              		.loc 1 119 9
 114 0032 07F11803 		add	r3, r7, #24
 115 0036 1846     		mov	r0, r3
 116 0038 FFF7FEFF 		bl	HAL_RCC_OscConfig
 117 003c 0346     		mov	r3, r0
 118              		.loc 1 119 8
 119 003e 002B     		cmp	r3, #0
 120 0040 01D0     		beq	.L4
 120:Core/Src/main.c ****         Error_Handler();
 121              		.loc 1 120 9
 122 0042 FFF7FEFF 		bl	Error_Handler
 123              	.L4:
 121:Core/Src/main.c ****     }
 122:Core/Src/main.c **** 
 123:Core/Src/main.c ****     /** Initializes the CPU, AHB and APB buses clocks
 124:Core/Src/main.c ****      */
 125:Core/Src/main.c ****     RCC_ClkInitStruct.ClockType = RCC_CLOCKTYPE_HCLK | RCC_CLOCKTYPE_SYSCLK | RCC_CLOCKTYPE_PCLK1 |
 124              		.loc 1 125 33
 125 0046 0F23     		movs	r3, #15
 126 0048 7B60     		str	r3, [r7, #4]
 126:Core/Src/main.c ****     RCC_ClkInitStruct.SYSCLKSource = RCC_SYSCLKSOURCE_HSI;
 127              		.loc 1 126 36
 128 004a 0023     		movs	r3, #0
 129 004c BB60     		str	r3, [r7, #8]
 127:Core/Src/main.c ****     RCC_ClkInitStruct.AHBCLKDivider = RCC_SYSCLK_DIV1;
 130              		.loc 1 127 37
 131 004e 0023     		movs	r3, #0
 132 0050 FB60     		str	r3, [r7, #12]
 128:Core/Src/main.c ****     RCC_ClkInitStruct.APB1CLKDivider = RCC_HCLK_DIV1;
 133              		.loc 1 128 38
 134 0052 0023     		movs	r3, #0
 135 0054 3B61     		str	r3, [r7, #16]
 129:Core/Src/main.c ****     RCC_ClkInitStruct.APB2CLKDivider = RCC_HCLK_DIV1;
 136              		.loc 1 129 38
 137 0056 0023     		movs	r3, #0
 138 0058 7B61     		str	r3, [r7, #20]
 130:Core/Src/main.c **** 
 131:Core/Src/main.c ****     if (HAL_RCC_ClockConfig(&RCC_ClkInitStruct, FLASH_LATENCY_0) != HAL_OK) {
 139              		.loc 1 131 9
 140 005a 3B1D     		adds	r3, r7, #4
 141 005c 0021     		movs	r1, #0
 142 005e 1846     		mov	r0, r3
 143 0060 FFF7FEFF 		bl	HAL_RCC_ClockConfig
 144 0064 0346     		mov	r3, r0
 145              		.loc 1 131 8
 146 0066 002B     		cmp	r3, #0
 147 0068 01D0     		beq	.L6
 132:Core/Src/main.c ****         Error_Handler();
 148              		.loc 1 132 9
 149 006a FFF7FEFF 		bl	Error_Handler
 150              	.L6:
 133:Core/Src/main.c ****     }
 134:Core/Src/main.c **** }
 151              		.loc 1 134 1
 152 006e 00BF     		nop
ARM GAS  C:\Users\MYKHAI~1.SEN\AppData\Local\Temp\cck3W87h.s 			page 6


 153 0070 4037     		adds	r7, r7, #64
 154              	.LCFI5:
 155              		.cfi_def_cfa_offset 8
 156 0072 BD46     		mov	sp, r7
 157              	.LCFI6:
 158              		.cfi_def_cfa_register 13
 159              		@ sp needed
 160 0074 80BD     		pop	{r7, pc}
 161              		.cfi_endproc
 162              	.LFE66:
 164              		.section	.text.MX_SPI2_Init,"ax",%progbits
 165              		.align	1
 166              		.syntax unified
 167              		.thumb
 168              		.thumb_func
 170              	MX_SPI2_Init:
 171              	.LFB67:
 135:Core/Src/main.c **** 
 136:Core/Src/main.c **** /**
 137:Core/Src/main.c ****  * @brief SPI2 Initialization Function
 138:Core/Src/main.c ****  * @param None
 139:Core/Src/main.c ****  * @retval None
 140:Core/Src/main.c ****  */
 141:Core/Src/main.c **** static void MX_SPI2_Init(void) {
 172              		.loc 1 141 32
 173              		.cfi_startproc
 174              		@ args = 0, pretend = 0, frame = 0
 175              		@ frame_needed = 1, uses_anonymous_args = 0
 176 0000 80B5     		push	{r7, lr}
 177              	.LCFI7:
 178              		.cfi_def_cfa_offset 8
 179              		.cfi_offset 7, -8
 180              		.cfi_offset 14, -4
 181 0002 00AF     		add	r7, sp, #0
 182              	.LCFI8:
 183              		.cfi_def_cfa_register 7
 142:Core/Src/main.c **** 
 143:Core/Src/main.c ****     /* USER CODE BEGIN SPI2_Init 0 */
 144:Core/Src/main.c **** 
 145:Core/Src/main.c ****     /* USER CODE END SPI2_Init 0 */
 146:Core/Src/main.c **** 
 147:Core/Src/main.c ****     /* USER CODE BEGIN SPI2_Init 1 */
 148:Core/Src/main.c **** 
 149:Core/Src/main.c ****     /* USER CODE END SPI2_Init 1 */
 150:Core/Src/main.c ****     /* SPI2 parameter configuration*/
 151:Core/Src/main.c ****     hspi2.Instance = SPI2;
 184              		.loc 1 151 20
 185 0004 174B     		ldr	r3, .L10
 186 0006 184A     		ldr	r2, .L10+4
 187 0008 1A60     		str	r2, [r3]
 152:Core/Src/main.c ****     hspi2.Init.Mode = SPI_MODE_MASTER;
 188              		.loc 1 152 21
 189 000a 164B     		ldr	r3, .L10
 190 000c 4FF48272 		mov	r2, #260
 191 0010 5A60     		str	r2, [r3, #4]
 153:Core/Src/main.c ****     hspi2.Init.Direction = SPI_DIRECTION_2LINES;
 192              		.loc 1 153 26
ARM GAS  C:\Users\MYKHAI~1.SEN\AppData\Local\Temp\cck3W87h.s 			page 7


 193 0012 144B     		ldr	r3, .L10
 194 0014 0022     		movs	r2, #0
 195 0016 9A60     		str	r2, [r3, #8]
 154:Core/Src/main.c ****     hspi2.Init.DataSize = SPI_DATASIZE_8BIT;
 196              		.loc 1 154 25
 197 0018 124B     		ldr	r3, .L10
 198 001a 0022     		movs	r2, #0
 199 001c DA60     		str	r2, [r3, #12]
 155:Core/Src/main.c ****     hspi2.Init.CLKPolarity = SPI_POLARITY_LOW;
 200              		.loc 1 155 28
 201 001e 114B     		ldr	r3, .L10
 202 0020 0022     		movs	r2, #0
 203 0022 1A61     		str	r2, [r3, #16]
 156:Core/Src/main.c ****     hspi2.Init.CLKPhase = SPI_PHASE_1EDGE;
 204              		.loc 1 156 25
 205 0024 0F4B     		ldr	r3, .L10
 206 0026 0022     		movs	r2, #0
 207 0028 5A61     		str	r2, [r3, #20]
 157:Core/Src/main.c ****     hspi2.Init.NSS = SPI_NSS_SOFT;
 208              		.loc 1 157 20
 209 002a 0E4B     		ldr	r3, .L10
 210 002c 4FF40072 		mov	r2, #512
 211 0030 9A61     		str	r2, [r3, #24]
 158:Core/Src/main.c ****     hspi2.Init.BaudRatePrescaler = SPI_BAUDRATEPRESCALER_4;
 212              		.loc 1 158 34
 213 0032 0C4B     		ldr	r3, .L10
 214 0034 0822     		movs	r2, #8
 215 0036 DA61     		str	r2, [r3, #28]
 159:Core/Src/main.c ****     hspi2.Init.FirstBit = SPI_FIRSTBIT_MSB;
 216              		.loc 1 159 25
 217 0038 0A4B     		ldr	r3, .L10
 218 003a 0022     		movs	r2, #0
 219 003c 1A62     		str	r2, [r3, #32]
 160:Core/Src/main.c ****     hspi2.Init.TIMode = SPI_TIMODE_DISABLE;
 220              		.loc 1 160 23
 221 003e 094B     		ldr	r3, .L10
 222 0040 0022     		movs	r2, #0
 223 0042 5A62     		str	r2, [r3, #36]
 161:Core/Src/main.c ****     hspi2.Init.CRCCalculation = SPI_CRCCALCULATION_DISABLE;
 224              		.loc 1 161 31
 225 0044 074B     		ldr	r3, .L10
 226 0046 0022     		movs	r2, #0
 227 0048 9A62     		str	r2, [r3, #40]
 162:Core/Src/main.c ****     hspi2.Init.CRCPolynomial = 10;
 228              		.loc 1 162 30
 229 004a 064B     		ldr	r3, .L10
 230 004c 0A22     		movs	r2, #10
 231 004e DA62     		str	r2, [r3, #44]
 163:Core/Src/main.c ****     if (HAL_SPI_Init(&hspi2) != HAL_OK) {
 232              		.loc 1 163 9
 233 0050 0448     		ldr	r0, .L10
 234 0052 FFF7FEFF 		bl	HAL_SPI_Init
 235 0056 0346     		mov	r3, r0
 236              		.loc 1 163 8
 237 0058 002B     		cmp	r3, #0
 238 005a 01D0     		beq	.L9
 164:Core/Src/main.c ****         Error_Handler();
ARM GAS  C:\Users\MYKHAI~1.SEN\AppData\Local\Temp\cck3W87h.s 			page 8


 239              		.loc 1 164 9
 240 005c FFF7FEFF 		bl	Error_Handler
 241              	.L9:
 165:Core/Src/main.c ****     }
 166:Core/Src/main.c ****     /* USER CODE BEGIN SPI2_Init 2 */
 167:Core/Src/main.c **** 
 168:Core/Src/main.c ****     /* USER CODE END SPI2_Init 2 */
 169:Core/Src/main.c **** }
 242              		.loc 1 169 1
 243 0060 00BF     		nop
 244 0062 80BD     		pop	{r7, pc}
 245              	.L11:
 246              		.align	2
 247              	.L10:
 248 0064 00000000 		.word	hspi2
 249 0068 00380040 		.word	1073756160
 250              		.cfi_endproc
 251              	.LFE67:
 253              		.section	.text.MX_GPIO_Init,"ax",%progbits
 254              		.align	1
 255              		.syntax unified
 256              		.thumb
 257              		.thumb_func
 259              	MX_GPIO_Init:
 260              	.LFB68:
 170:Core/Src/main.c **** 
 171:Core/Src/main.c **** /**
 172:Core/Src/main.c ****  * @brief GPIO Initialization Function
 173:Core/Src/main.c ****  * @param None
 174:Core/Src/main.c ****  * @retval None
 175:Core/Src/main.c ****  */
 176:Core/Src/main.c **** static void MX_GPIO_Init(void) {
 261              		.loc 1 176 32
 262              		.cfi_startproc
 263              		@ args = 0, pretend = 0, frame = 32
 264              		@ frame_needed = 1, uses_anonymous_args = 0
 265 0000 80B5     		push	{r7, lr}
 266              	.LCFI9:
 267              		.cfi_def_cfa_offset 8
 268              		.cfi_offset 7, -8
 269              		.cfi_offset 14, -4
 270 0002 88B0     		sub	sp, sp, #32
 271              	.LCFI10:
 272              		.cfi_def_cfa_offset 40
 273 0004 00AF     		add	r7, sp, #0
 274              	.LCFI11:
 275              		.cfi_def_cfa_register 7
 177:Core/Src/main.c ****     GPIO_InitTypeDef GPIO_InitStruct = {0};
 276              		.loc 1 177 22
 277 0006 07F11003 		add	r3, r7, #16
 278 000a 0022     		movs	r2, #0
 279 000c 1A60     		str	r2, [r3]
 280 000e 5A60     		str	r2, [r3, #4]
 281 0010 9A60     		str	r2, [r3, #8]
 282 0012 DA60     		str	r2, [r3, #12]
 283              	.LBB4:
 178:Core/Src/main.c **** 
ARM GAS  C:\Users\MYKHAI~1.SEN\AppData\Local\Temp\cck3W87h.s 			page 9


 179:Core/Src/main.c ****     /* GPIO Ports Clock Enable */
 180:Core/Src/main.c ****     __HAL_RCC_GPIOC_CLK_ENABLE();
 284              		.loc 1 180 5
 285 0014 2B4B     		ldr	r3, .L13
 286 0016 9B69     		ldr	r3, [r3, #24]
 287 0018 2A4A     		ldr	r2, .L13
 288 001a 43F01003 		orr	r3, r3, #16
 289 001e 9361     		str	r3, [r2, #24]
 290 0020 284B     		ldr	r3, .L13
 291 0022 9B69     		ldr	r3, [r3, #24]
 292 0024 03F01003 		and	r3, r3, #16
 293 0028 FB60     		str	r3, [r7, #12]
 294 002a FB68     		ldr	r3, [r7, #12]
 295              	.LBE4:
 296              	.LBB5:
 181:Core/Src/main.c ****     __HAL_RCC_GPIOB_CLK_ENABLE();
 297              		.loc 1 181 5
 298 002c 254B     		ldr	r3, .L13
 299 002e 9B69     		ldr	r3, [r3, #24]
 300 0030 244A     		ldr	r2, .L13
 301 0032 43F00803 		orr	r3, r3, #8
 302 0036 9361     		str	r3, [r2, #24]
 303 0038 224B     		ldr	r3, .L13
 304 003a 9B69     		ldr	r3, [r3, #24]
 305 003c 03F00803 		and	r3, r3, #8
 306 0040 BB60     		str	r3, [r7, #8]
 307 0042 BB68     		ldr	r3, [r7, #8]
 308              	.LBE5:
 309              	.LBB6:
 182:Core/Src/main.c ****     __HAL_RCC_GPIOA_CLK_ENABLE();
 310              		.loc 1 182 5
 311 0044 1F4B     		ldr	r3, .L13
 312 0046 9B69     		ldr	r3, [r3, #24]
 313 0048 1E4A     		ldr	r2, .L13
 314 004a 43F00403 		orr	r3, r3, #4
 315 004e 9361     		str	r3, [r2, #24]
 316 0050 1C4B     		ldr	r3, .L13
 317 0052 9B69     		ldr	r3, [r3, #24]
 318 0054 03F00403 		and	r3, r3, #4
 319 0058 7B60     		str	r3, [r7, #4]
 320 005a 7B68     		ldr	r3, [r7, #4]
 321              	.LBE6:
 183:Core/Src/main.c **** 
 184:Core/Src/main.c ****     /*Configure GPIO pin Output Level */
 185:Core/Src/main.c ****     HAL_GPIO_WritePin(LED_GPIO_Port, LED_Pin, GPIO_PIN_SET);
 322              		.loc 1 185 5
 323 005c 0122     		movs	r2, #1
 324 005e 4FF40051 		mov	r1, #8192
 325 0062 1948     		ldr	r0, .L13+4
 326 0064 FFF7FEFF 		bl	HAL_GPIO_WritePin
 186:Core/Src/main.c **** 
 187:Core/Src/main.c ****     /*Configure GPIO pin Output Level */
 188:Core/Src/main.c ****     HAL_GPIO_WritePin(CSN_GPIO_Port, CSN_Pin, GPIO_PIN_SET);
 327              		.loc 1 188 5
 328 0068 0122     		movs	r2, #1
 329 006a 4FF48071 		mov	r1, #256
 330 006e 1748     		ldr	r0, .L13+8
ARM GAS  C:\Users\MYKHAI~1.SEN\AppData\Local\Temp\cck3W87h.s 			page 10


 331 0070 FFF7FEFF 		bl	HAL_GPIO_WritePin
 189:Core/Src/main.c **** 
 190:Core/Src/main.c ****     /*Configure GPIO pin Output Level */
 191:Core/Src/main.c ****     HAL_GPIO_WritePin(CE_GPIO_Port, CE_Pin, GPIO_PIN_RESET);
 332              		.loc 1 191 5
 333 0074 0022     		movs	r2, #0
 334 0076 4FF40071 		mov	r1, #512
 335 007a 1448     		ldr	r0, .L13+8
 336 007c FFF7FEFF 		bl	HAL_GPIO_WritePin
 192:Core/Src/main.c **** 
 193:Core/Src/main.c ****     /*Configure GPIO pin : LED_Pin */
 194:Core/Src/main.c ****     GPIO_InitStruct.Pin = LED_Pin;
 337              		.loc 1 194 25
 338 0080 4FF40053 		mov	r3, #8192
 339 0084 3B61     		str	r3, [r7, #16]
 195:Core/Src/main.c ****     GPIO_InitStruct.Mode = GPIO_MODE_OUTPUT_PP;
 340              		.loc 1 195 26
 341 0086 0123     		movs	r3, #1
 342 0088 7B61     		str	r3, [r7, #20]
 196:Core/Src/main.c ****     GPIO_InitStruct.Pull = GPIO_NOPULL;
 343              		.loc 1 196 26
 344 008a 0023     		movs	r3, #0
 345 008c BB61     		str	r3, [r7, #24]
 197:Core/Src/main.c ****     GPIO_InitStruct.Speed = GPIO_SPEED_FREQ_LOW;
 346              		.loc 1 197 27
 347 008e 0223     		movs	r3, #2
 348 0090 FB61     		str	r3, [r7, #28]
 198:Core/Src/main.c ****     HAL_GPIO_Init(LED_GPIO_Port, &GPIO_InitStruct);
 349              		.loc 1 198 5
 350 0092 07F11003 		add	r3, r7, #16
 351 0096 1946     		mov	r1, r3
 352 0098 0B48     		ldr	r0, .L13+4
 353 009a FFF7FEFF 		bl	HAL_GPIO_Init
 199:Core/Src/main.c **** 
 200:Core/Src/main.c ****     /*Configure GPIO pins : CSN_Pin CE_Pin */
 201:Core/Src/main.c ****     GPIO_InitStruct.Pin = CSN_Pin | CE_Pin;
 354              		.loc 1 201 25
 355 009e 4FF44073 		mov	r3, #768
 356 00a2 3B61     		str	r3, [r7, #16]
 202:Core/Src/main.c ****     GPIO_InitStruct.Mode = GPIO_MODE_OUTPUT_PP;
 357              		.loc 1 202 26
 358 00a4 0123     		movs	r3, #1
 359 00a6 7B61     		str	r3, [r7, #20]
 203:Core/Src/main.c ****     GPIO_InitStruct.Pull = GPIO_NOPULL;
 360              		.loc 1 203 26
 361 00a8 0023     		movs	r3, #0
 362 00aa BB61     		str	r3, [r7, #24]
 204:Core/Src/main.c ****     GPIO_InitStruct.Speed = GPIO_SPEED_FREQ_LOW;
 363              		.loc 1 204 27
 364 00ac 0223     		movs	r3, #2
 365 00ae FB61     		str	r3, [r7, #28]
 205:Core/Src/main.c ****     HAL_GPIO_Init(GPIOA, &GPIO_InitStruct);
 366              		.loc 1 205 5
 367 00b0 07F11003 		add	r3, r7, #16
 368 00b4 1946     		mov	r1, r3
 369 00b6 0548     		ldr	r0, .L13+8
 370 00b8 FFF7FEFF 		bl	HAL_GPIO_Init
ARM GAS  C:\Users\MYKHAI~1.SEN\AppData\Local\Temp\cck3W87h.s 			page 11


 206:Core/Src/main.c **** }
 371              		.loc 1 206 1
 372 00bc 00BF     		nop
 373 00be 2037     		adds	r7, r7, #32
 374              	.LCFI12:
 375              		.cfi_def_cfa_offset 8
 376 00c0 BD46     		mov	sp, r7
 377              	.LCFI13:
 378              		.cfi_def_cfa_register 13
 379              		@ sp needed
 380 00c2 80BD     		pop	{r7, pc}
 381              	.L14:
 382              		.align	2
 383              	.L13:
 384 00c4 00100240 		.word	1073876992
 385 00c8 00100140 		.word	1073811456
 386 00cc 00080140 		.word	1073809408
 387              		.cfi_endproc
 388              	.LFE68:
 390              		.section	.text.Error_Handler,"ax",%progbits
 391              		.align	1
 392              		.global	Error_Handler
 393              		.syntax unified
 394              		.thumb
 395              		.thumb_func
 397              	Error_Handler:
 398              	.LFB69:
 207:Core/Src/main.c **** 
 208:Core/Src/main.c **** /* USER CODE BEGIN 4 */
 209:Core/Src/main.c **** 
 210:Core/Src/main.c **** /* USER CODE END 4 */
 211:Core/Src/main.c **** 
 212:Core/Src/main.c **** /**
 213:Core/Src/main.c ****  * @brief  This function is executed in case of error occurrence.
 214:Core/Src/main.c ****  * @retval None
 215:Core/Src/main.c ****  */
 216:Core/Src/main.c **** void Error_Handler(void) {
 399              		.loc 1 216 26
 400              		.cfi_startproc
 401              		@ args = 0, pretend = 0, frame = 0
 402              		@ frame_needed = 1, uses_anonymous_args = 0
 403              		@ link register save eliminated.
 404 0000 80B4     		push	{r7}
 405              	.LCFI14:
 406              		.cfi_def_cfa_offset 4
 407              		.cfi_offset 7, -4
 408 0002 00AF     		add	r7, sp, #0
 409              	.LCFI15:
 410              		.cfi_def_cfa_register 7
 411              	.LBB7:
 412              	.LBB8:
 413              		.file 2 "Drivers/CMSIS/Include/cmsis_gcc.h"
   1:Drivers/CMSIS/Include/cmsis_gcc.h **** /**************************************************************************//**
   2:Drivers/CMSIS/Include/cmsis_gcc.h ****  * @file     cmsis_gcc.h
   3:Drivers/CMSIS/Include/cmsis_gcc.h ****  * @brief    CMSIS compiler GCC header file
   4:Drivers/CMSIS/Include/cmsis_gcc.h ****  * @version  V5.0.4
   5:Drivers/CMSIS/Include/cmsis_gcc.h ****  * @date     09. April 2018
ARM GAS  C:\Users\MYKHAI~1.SEN\AppData\Local\Temp\cck3W87h.s 			page 12


   6:Drivers/CMSIS/Include/cmsis_gcc.h ****  ******************************************************************************/
   7:Drivers/CMSIS/Include/cmsis_gcc.h **** /*
   8:Drivers/CMSIS/Include/cmsis_gcc.h ****  * Copyright (c) 2009-2018 Arm Limited. All rights reserved.
   9:Drivers/CMSIS/Include/cmsis_gcc.h ****  *
  10:Drivers/CMSIS/Include/cmsis_gcc.h ****  * SPDX-License-Identifier: Apache-2.0
  11:Drivers/CMSIS/Include/cmsis_gcc.h ****  *
  12:Drivers/CMSIS/Include/cmsis_gcc.h ****  * Licensed under the Apache License, Version 2.0 (the License); you may
  13:Drivers/CMSIS/Include/cmsis_gcc.h ****  * not use this file except in compliance with the License.
  14:Drivers/CMSIS/Include/cmsis_gcc.h ****  * You may obtain a copy of the License at
  15:Drivers/CMSIS/Include/cmsis_gcc.h ****  *
  16:Drivers/CMSIS/Include/cmsis_gcc.h ****  * www.apache.org/licenses/LICENSE-2.0
  17:Drivers/CMSIS/Include/cmsis_gcc.h ****  *
  18:Drivers/CMSIS/Include/cmsis_gcc.h ****  * Unless required by applicable law or agreed to in writing, software
  19:Drivers/CMSIS/Include/cmsis_gcc.h ****  * distributed under the License is distributed on an AS IS BASIS, WITHOUT
  20:Drivers/CMSIS/Include/cmsis_gcc.h ****  * WARRANTIES OR CONDITIONS OF ANY KIND, either express or implied.
  21:Drivers/CMSIS/Include/cmsis_gcc.h ****  * See the License for the specific language governing permissions and
  22:Drivers/CMSIS/Include/cmsis_gcc.h ****  * limitations under the License.
  23:Drivers/CMSIS/Include/cmsis_gcc.h ****  */
  24:Drivers/CMSIS/Include/cmsis_gcc.h **** 
  25:Drivers/CMSIS/Include/cmsis_gcc.h **** #ifndef __CMSIS_GCC_H
  26:Drivers/CMSIS/Include/cmsis_gcc.h **** #define __CMSIS_GCC_H
  27:Drivers/CMSIS/Include/cmsis_gcc.h **** 
  28:Drivers/CMSIS/Include/cmsis_gcc.h **** /* ignore some GCC warnings */
  29:Drivers/CMSIS/Include/cmsis_gcc.h **** #pragma GCC diagnostic push
  30:Drivers/CMSIS/Include/cmsis_gcc.h **** #pragma GCC diagnostic ignored "-Wsign-conversion"
  31:Drivers/CMSIS/Include/cmsis_gcc.h **** #pragma GCC diagnostic ignored "-Wconversion"
  32:Drivers/CMSIS/Include/cmsis_gcc.h **** #pragma GCC diagnostic ignored "-Wunused-parameter"
  33:Drivers/CMSIS/Include/cmsis_gcc.h **** 
  34:Drivers/CMSIS/Include/cmsis_gcc.h **** /* Fallback for __has_builtin */
  35:Drivers/CMSIS/Include/cmsis_gcc.h **** #ifndef __has_builtin
  36:Drivers/CMSIS/Include/cmsis_gcc.h ****   #define __has_builtin(x) (0)
  37:Drivers/CMSIS/Include/cmsis_gcc.h **** #endif
  38:Drivers/CMSIS/Include/cmsis_gcc.h **** 
  39:Drivers/CMSIS/Include/cmsis_gcc.h **** /* CMSIS compiler specific defines */
  40:Drivers/CMSIS/Include/cmsis_gcc.h **** #ifndef   __ASM
  41:Drivers/CMSIS/Include/cmsis_gcc.h ****   #define __ASM                                  __asm
  42:Drivers/CMSIS/Include/cmsis_gcc.h **** #endif
  43:Drivers/CMSIS/Include/cmsis_gcc.h **** #ifndef   __INLINE
  44:Drivers/CMSIS/Include/cmsis_gcc.h ****   #define __INLINE                               inline
  45:Drivers/CMSIS/Include/cmsis_gcc.h **** #endif
  46:Drivers/CMSIS/Include/cmsis_gcc.h **** #ifndef   __STATIC_INLINE
  47:Drivers/CMSIS/Include/cmsis_gcc.h ****   #define __STATIC_INLINE                        static inline
  48:Drivers/CMSIS/Include/cmsis_gcc.h **** #endif
  49:Drivers/CMSIS/Include/cmsis_gcc.h **** #ifndef   __STATIC_FORCEINLINE                 
  50:Drivers/CMSIS/Include/cmsis_gcc.h ****   #define __STATIC_FORCEINLINE                   __attribute__((always_inline)) static inline
  51:Drivers/CMSIS/Include/cmsis_gcc.h **** #endif                                           
  52:Drivers/CMSIS/Include/cmsis_gcc.h **** #ifndef   __NO_RETURN
  53:Drivers/CMSIS/Include/cmsis_gcc.h ****   #define __NO_RETURN                            __attribute__((__noreturn__))
  54:Drivers/CMSIS/Include/cmsis_gcc.h **** #endif
  55:Drivers/CMSIS/Include/cmsis_gcc.h **** #ifndef   __USED
  56:Drivers/CMSIS/Include/cmsis_gcc.h ****   #define __USED                                 __attribute__((used))
  57:Drivers/CMSIS/Include/cmsis_gcc.h **** #endif
  58:Drivers/CMSIS/Include/cmsis_gcc.h **** #ifndef   __WEAK
  59:Drivers/CMSIS/Include/cmsis_gcc.h ****   #define __WEAK                                 __attribute__((weak))
  60:Drivers/CMSIS/Include/cmsis_gcc.h **** #endif
  61:Drivers/CMSIS/Include/cmsis_gcc.h **** #ifndef   __PACKED
  62:Drivers/CMSIS/Include/cmsis_gcc.h ****   #define __PACKED                               __attribute__((packed, aligned(1)))
ARM GAS  C:\Users\MYKHAI~1.SEN\AppData\Local\Temp\cck3W87h.s 			page 13


  63:Drivers/CMSIS/Include/cmsis_gcc.h **** #endif
  64:Drivers/CMSIS/Include/cmsis_gcc.h **** #ifndef   __PACKED_STRUCT
  65:Drivers/CMSIS/Include/cmsis_gcc.h ****   #define __PACKED_STRUCT                        struct __attribute__((packed, aligned(1)))
  66:Drivers/CMSIS/Include/cmsis_gcc.h **** #endif
  67:Drivers/CMSIS/Include/cmsis_gcc.h **** #ifndef   __PACKED_UNION
  68:Drivers/CMSIS/Include/cmsis_gcc.h ****   #define __PACKED_UNION                         union __attribute__((packed, aligned(1)))
  69:Drivers/CMSIS/Include/cmsis_gcc.h **** #endif
  70:Drivers/CMSIS/Include/cmsis_gcc.h **** #ifndef   __UNALIGNED_UINT32        /* deprecated */
  71:Drivers/CMSIS/Include/cmsis_gcc.h ****   #pragma GCC diagnostic push
  72:Drivers/CMSIS/Include/cmsis_gcc.h ****   #pragma GCC diagnostic ignored "-Wpacked"
  73:Drivers/CMSIS/Include/cmsis_gcc.h ****   #pragma GCC diagnostic ignored "-Wattributes"
  74:Drivers/CMSIS/Include/cmsis_gcc.h ****   struct __attribute__((packed)) T_UINT32 { uint32_t v; };
  75:Drivers/CMSIS/Include/cmsis_gcc.h ****   #pragma GCC diagnostic pop
  76:Drivers/CMSIS/Include/cmsis_gcc.h ****   #define __UNALIGNED_UINT32(x)                  (((struct T_UINT32 *)(x))->v)
  77:Drivers/CMSIS/Include/cmsis_gcc.h **** #endif
  78:Drivers/CMSIS/Include/cmsis_gcc.h **** #ifndef   __UNALIGNED_UINT16_WRITE
  79:Drivers/CMSIS/Include/cmsis_gcc.h ****   #pragma GCC diagnostic push
  80:Drivers/CMSIS/Include/cmsis_gcc.h ****   #pragma GCC diagnostic ignored "-Wpacked"
  81:Drivers/CMSIS/Include/cmsis_gcc.h ****   #pragma GCC diagnostic ignored "-Wattributes"
  82:Drivers/CMSIS/Include/cmsis_gcc.h ****   __PACKED_STRUCT T_UINT16_WRITE { uint16_t v; };
  83:Drivers/CMSIS/Include/cmsis_gcc.h ****   #pragma GCC diagnostic pop
  84:Drivers/CMSIS/Include/cmsis_gcc.h ****   #define __UNALIGNED_UINT16_WRITE(addr, val)    (void)((((struct T_UINT16_WRITE *)(void *)(addr))-
  85:Drivers/CMSIS/Include/cmsis_gcc.h **** #endif
  86:Drivers/CMSIS/Include/cmsis_gcc.h **** #ifndef   __UNALIGNED_UINT16_READ
  87:Drivers/CMSIS/Include/cmsis_gcc.h ****   #pragma GCC diagnostic push
  88:Drivers/CMSIS/Include/cmsis_gcc.h ****   #pragma GCC diagnostic ignored "-Wpacked"
  89:Drivers/CMSIS/Include/cmsis_gcc.h ****   #pragma GCC diagnostic ignored "-Wattributes"
  90:Drivers/CMSIS/Include/cmsis_gcc.h ****   __PACKED_STRUCT T_UINT16_READ { uint16_t v; };
  91:Drivers/CMSIS/Include/cmsis_gcc.h ****   #pragma GCC diagnostic pop
  92:Drivers/CMSIS/Include/cmsis_gcc.h ****   #define __UNALIGNED_UINT16_READ(addr)          (((const struct T_UINT16_READ *)(const void *)(add
  93:Drivers/CMSIS/Include/cmsis_gcc.h **** #endif
  94:Drivers/CMSIS/Include/cmsis_gcc.h **** #ifndef   __UNALIGNED_UINT32_WRITE
  95:Drivers/CMSIS/Include/cmsis_gcc.h ****   #pragma GCC diagnostic push
  96:Drivers/CMSIS/Include/cmsis_gcc.h ****   #pragma GCC diagnostic ignored "-Wpacked"
  97:Drivers/CMSIS/Include/cmsis_gcc.h ****   #pragma GCC diagnostic ignored "-Wattributes"
  98:Drivers/CMSIS/Include/cmsis_gcc.h ****   __PACKED_STRUCT T_UINT32_WRITE { uint32_t v; };
  99:Drivers/CMSIS/Include/cmsis_gcc.h ****   #pragma GCC diagnostic pop
 100:Drivers/CMSIS/Include/cmsis_gcc.h ****   #define __UNALIGNED_UINT32_WRITE(addr, val)    (void)((((struct T_UINT32_WRITE *)(void *)(addr))-
 101:Drivers/CMSIS/Include/cmsis_gcc.h **** #endif
 102:Drivers/CMSIS/Include/cmsis_gcc.h **** #ifndef   __UNALIGNED_UINT32_READ
 103:Drivers/CMSIS/Include/cmsis_gcc.h ****   #pragma GCC diagnostic push
 104:Drivers/CMSIS/Include/cmsis_gcc.h ****   #pragma GCC diagnostic ignored "-Wpacked"
 105:Drivers/CMSIS/Include/cmsis_gcc.h ****   #pragma GCC diagnostic ignored "-Wattributes"
 106:Drivers/CMSIS/Include/cmsis_gcc.h ****   __PACKED_STRUCT T_UINT32_READ { uint32_t v; };
 107:Drivers/CMSIS/Include/cmsis_gcc.h ****   #pragma GCC diagnostic pop
 108:Drivers/CMSIS/Include/cmsis_gcc.h ****   #define __UNALIGNED_UINT32_READ(addr)          (((const struct T_UINT32_READ *)(const void *)(add
 109:Drivers/CMSIS/Include/cmsis_gcc.h **** #endif
 110:Drivers/CMSIS/Include/cmsis_gcc.h **** #ifndef   __ALIGNED
 111:Drivers/CMSIS/Include/cmsis_gcc.h ****   #define __ALIGNED(x)                           __attribute__((aligned(x)))
 112:Drivers/CMSIS/Include/cmsis_gcc.h **** #endif
 113:Drivers/CMSIS/Include/cmsis_gcc.h **** #ifndef   __RESTRICT
 114:Drivers/CMSIS/Include/cmsis_gcc.h ****   #define __RESTRICT                             __restrict
 115:Drivers/CMSIS/Include/cmsis_gcc.h **** #endif
 116:Drivers/CMSIS/Include/cmsis_gcc.h **** 
 117:Drivers/CMSIS/Include/cmsis_gcc.h **** 
 118:Drivers/CMSIS/Include/cmsis_gcc.h **** /* ###########################  Core Function Access  ########################### */
 119:Drivers/CMSIS/Include/cmsis_gcc.h **** /** \ingroup  CMSIS_Core_FunctionInterface
ARM GAS  C:\Users\MYKHAI~1.SEN\AppData\Local\Temp\cck3W87h.s 			page 14


 120:Drivers/CMSIS/Include/cmsis_gcc.h ****     \defgroup CMSIS_Core_RegAccFunctions CMSIS Core Register Access Functions
 121:Drivers/CMSIS/Include/cmsis_gcc.h ****   @{
 122:Drivers/CMSIS/Include/cmsis_gcc.h ****  */
 123:Drivers/CMSIS/Include/cmsis_gcc.h **** 
 124:Drivers/CMSIS/Include/cmsis_gcc.h **** /**
 125:Drivers/CMSIS/Include/cmsis_gcc.h ****   \brief   Enable IRQ Interrupts
 126:Drivers/CMSIS/Include/cmsis_gcc.h ****   \details Enables IRQ interrupts by clearing the I-bit in the CPSR.
 127:Drivers/CMSIS/Include/cmsis_gcc.h ****            Can only be executed in Privileged modes.
 128:Drivers/CMSIS/Include/cmsis_gcc.h ****  */
 129:Drivers/CMSIS/Include/cmsis_gcc.h **** __STATIC_FORCEINLINE void __enable_irq(void)
 130:Drivers/CMSIS/Include/cmsis_gcc.h **** {
 131:Drivers/CMSIS/Include/cmsis_gcc.h ****   __ASM volatile ("cpsie i" : : : "memory");
 132:Drivers/CMSIS/Include/cmsis_gcc.h **** }
 133:Drivers/CMSIS/Include/cmsis_gcc.h **** 
 134:Drivers/CMSIS/Include/cmsis_gcc.h **** 
 135:Drivers/CMSIS/Include/cmsis_gcc.h **** /**
 136:Drivers/CMSIS/Include/cmsis_gcc.h ****   \brief   Disable IRQ Interrupts
 137:Drivers/CMSIS/Include/cmsis_gcc.h ****   \details Disables IRQ interrupts by setting the I-bit in the CPSR.
 138:Drivers/CMSIS/Include/cmsis_gcc.h ****            Can only be executed in Privileged modes.
 139:Drivers/CMSIS/Include/cmsis_gcc.h ****  */
 140:Drivers/CMSIS/Include/cmsis_gcc.h **** __STATIC_FORCEINLINE void __disable_irq(void)
 141:Drivers/CMSIS/Include/cmsis_gcc.h **** {
 142:Drivers/CMSIS/Include/cmsis_gcc.h ****   __ASM volatile ("cpsid i" : : : "memory");
 414              		.loc 2 142 3
 415              		.syntax unified
 416              	@ 142 "Drivers/CMSIS/Include/cmsis_gcc.h" 1
 417 0004 72B6     		cpsid i
 418              	@ 0 "" 2
 143:Drivers/CMSIS/Include/cmsis_gcc.h **** }
 419              		.loc 2 143 1
 420              		.thumb
 421              		.syntax unified
 422 0006 00BF     		nop
 423              	.L16:
 424              	.LBE8:
 425              	.LBE7:
 217:Core/Src/main.c ****     /* USER CODE BEGIN Error_Handler_Debug */
 218:Core/Src/main.c ****     /* User can add his own implementation to report the HAL error return state */
 219:Core/Src/main.c ****     __disable_irq();
 220:Core/Src/main.c ****     while (1) {
 426              		.loc 1 220 11 discriminator 1
 427 0008 00BF     		nop
 428 000a FDE7     		b	.L16
 429              		.cfi_endproc
 430              	.LFE69:
 432              		.text
 433              	.Letext0:
 434              		.file 3 "c:\\program files (custom)\\arm-gnu-toolchain\\arm-none-eabi\\include\\machine\\_default_
 435              		.file 4 "c:\\program files (custom)\\arm-gnu-toolchain\\arm-none-eabi\\include\\sys\\_stdint.h"
 436              		.file 5 "Drivers/CMSIS/Device/ST/STM32F1xx/Include/stm32f103xb.h"
 437              		.file 6 "Drivers/STM32F1xx_HAL_Driver/Inc/stm32f1xx_hal_def.h"
 438              		.file 7 "Drivers/STM32F1xx_HAL_Driver/Inc/stm32f1xx_hal_rcc.h"
 439              		.file 8 "Drivers/STM32F1xx_HAL_Driver/Inc/stm32f1xx_hal_rcc_ex.h"
 440              		.file 9 "Drivers/STM32F1xx_HAL_Driver/Inc/stm32f1xx_hal_gpio.h"
 441              		.file 10 "Drivers/STM32F1xx_HAL_Driver/Inc/stm32f1xx_hal_dma.h"
 442              		.file 11 "Drivers/STM32F1xx_HAL_Driver/Inc/stm32f1xx_hal_spi.h"
 443              		.file 12 "Core/Inc/app-main.h"
ARM GAS  C:\Users\MYKHAI~1.SEN\AppData\Local\Temp\cck3W87h.s 			page 15


 444              		.file 13 "Drivers/STM32F1xx_HAL_Driver/Inc/stm32f1xx_hal.h"
ARM GAS  C:\Users\MYKHAI~1.SEN\AppData\Local\Temp\cck3W87h.s 			page 16

